target datalayout = "e-m:e-p270:32:32-p271:32:32-p272:64:64-i64:64-i128:128-f80:128-n8:16:32:64-S128"
target triple = "x86_64-pc-linux-gnu"

%struct.GLFWvidmode = type { i32, i32, i32, i32, i32, i32 }
%struct._GLFWmonitor = type { [128 x i8], ptr, i32, i32, ptr, ptr, i32, %struct.GLFWvidmode, %struct.GLFWgammaramp, %struct.GLFWgammaramp, %struct._GLFWmonitorWayland, %struct._GLFWmonitorX11, %struct._GLFWmonitorNull }
%struct.GLFWgammaramp = type { ptr, ptr, ptr, i32 }
%struct._GLFWmonitorWayland = type { ptr, i32, i32, i32, i32, i32 }
%struct._GLFWmonitorX11 = type { i64, i64, i64, i32 }
%struct._GLFWmonitorNull = type { %struct.GLFWgammaramp }

@.str.1 = private unnamed_addr constant [51 x i8] c"Null: Gamma ramp size must match current ramp size\00", align 1

; Function Attrs: nounwind uwtable
define hidden void @_glfwSetGammaRampNull(ptr noundef %0, ptr noundef %1) #0 {
  %3 = alloca ptr, align 8
  %4 = alloca ptr, align 8
  store ptr %0, ptr %3, align 8, !tbaa !11
  store ptr %1, ptr %4, align 8, !tbaa !26
  %5 = load ptr, ptr %3, align 8, !tbaa !11
  %6 = getelementptr inbounds nuw %struct._GLFWmonitor, ptr %5, i32 0, i32 12
  %7 = getelementptr inbounds nuw %struct._GLFWmonitorNull, ptr %6, i32 0, i32 0
  %8 = getelementptr inbounds nuw %struct.GLFWgammaramp, ptr %7, i32 0, i32 3
  %9 = load i32, ptr %8, align 8, !tbaa !28
  %10 = load ptr, ptr %4, align 8, !tbaa !26
  %11 = getelementptr inbounds nuw %struct.GLFWgammaramp, ptr %10, i32 0, i32 3
  %12 = load i32, ptr %11, align 8, !tbaa !44
  %13 = icmp ne i32 %9, %12
  br i1 %13, label %14, label %15

14:                                               ; preds = %2
  call void (i32, ptr, ...) @_glfwInputError(i32 noundef 65544, ptr noundef @.str.1)
  br label %55

15:                                               ; preds = %2
  %16 = load ptr, ptr %3, align 8, !tbaa !11
  %17 = getelementptr inbounds nuw %struct._GLFWmonitor, ptr %16, i32 0, i32 12
  %18 = getelementptr inbounds nuw %struct._GLFWmonitorNull, ptr %17, i32 0, i32 0
  %19 = getelementptr inbounds nuw %struct.GLFWgammaramp, ptr %18, i32 0, i32 0
  %20 = load ptr, ptr %19, align 8, !tbaa !38
  %21 = load ptr, ptr %4, align 8, !tbaa !26
  %22 = getelementptr inbounds nuw %struct.GLFWgammaramp, ptr %21, i32 0, i32 0
  %23 = load ptr, ptr %22, align 8, !tbaa !43
  %24 = load ptr, ptr %4, align 8, !tbaa !26
  %25 = getelementptr inbounds nuw %struct.GLFWgammaramp, ptr %24, i32 0, i32 3
  %26 = load i32, ptr %25, align 8, !tbaa !44
  %27 = zext i32 %26 to i64
  %28 = mul i64 2, %27
  call void @llvm.memcpy.p0.p0.i64(ptr align 2 %20, ptr align 2 %23, i64 %28, i1 false)
  %29 = load ptr, ptr %3, align 8, !tbaa !11
  %30 = getelementptr inbounds nuw %struct._GLFWmonitor, ptr %29, i32 0, i32 12
  %31 = getelementptr inbounds nuw %struct._GLFWmonitorNull, ptr %30, i32 0, i32 0
  %32 = getelementptr inbounds nuw %struct.GLFWgammaramp, ptr %31, i32 0, i32 1
  %33 = load ptr, ptr %32, align 8, !tbaa !41
  %34 = load ptr, ptr %4, align 8, !tbaa !26
  %35 = getelementptr inbounds nuw %struct.GLFWgammaramp, ptr %34, i32 0, i32 1
  %36 = load ptr, ptr %35, align 8, !tbaa !45
  %37 = load ptr, ptr %4, align 8, !tbaa !26
  %38 = getelementptr inbounds nuw %struct.GLFWgammaramp, ptr %37, i32 0, i32 3
  %39 = load i32, ptr %38, align 8, !tbaa !44
  %40 = zext i32 %39 to i64
  %41 = mul i64 2, %40
  call void @llvm.memcpy.p0.p0.i64(ptr align 2 %33, ptr align 2 %36, i64 %41, i1 false)
  %42 = load ptr, ptr %3, align 8, !tbaa !11
  %43 = getelementptr inbounds nuw %struct._GLFWmonitor, ptr %42, i32 0, i32 12
  %44 = getelementptr inbounds nuw %struct._GLFWmonitorNull, ptr %43, i32 0, i32 0
  %45 = getelementptr inbounds nuw %struct.GLFWgammaramp, ptr %44, i32 0, i32 2
  %46 = load ptr, ptr %45, align 8, !tbaa !42
  %47 = load ptr, ptr %4, align 8, !tbaa !26
  %48 = getelementptr inbounds nuw %struct.GLFWgammaramp, ptr %47, i32 0, i32 2
  %49 = load ptr, ptr %48, align 8, !tbaa !46
  %50 = load ptr, ptr %4, align 8, !tbaa !26
  %51 = getelementptr inbounds nuw %struct.GLFWgammaramp, ptr %50, i32 0, i32 3
  %52 = load i32, ptr %51, align 8, !tbaa !44
  %53 = zext i32 %52 to i64
  %54 = mul i64 2, %53
  call void @llvm.memcpy.p0.p0.i64(ptr align 2 %46, ptr align 2 %49, i64 %54, i1 false)
  br label %55

55:                                               ; preds = %15, %14
  ret void
}