; Function Attrs: nounwind uwtable
define hidden void @_glfwSetGammaRampNull(ptr noundef readonly captures(none) %0, ptr noundef readonly captures(none) %1) local_unnamed_addr #0 {
  %3 = getelementptr inbounds nuw i8, ptr %0, i64 344
  %4 = load i32, ptr %3, align 8, !tbaa !9
  %5 = getelementptr inbounds nuw i8, ptr %1, i64 24
  %6 = load i32, ptr %5, align 8, !tbaa !28
  %.not = icmp eq i32 %4, %6
  br i1 %.not, label %8, label %7

7:                                                ; preds = %2
  tail call void (i32, ptr, ...) @_glfwInputError(i32 noundef 65544, ptr noundef nonnull @.str.1) #6
  br label %28

8:                                                ; preds = %2
  %9 = getelementptr inbounds nuw i8, ptr %0, i64 320
  %10 = load ptr, ptr %9, align 8, !tbaa !22
  %11 = load ptr, ptr %1, align 8, !tbaa !27
  %12 = zext i32 %4 to i64
  %13 = shl nuw nsw i64 %12, 1
  tail call void @llvm.memcpy.p0.p0.i64(ptr align 2 %10, ptr align 2 %11, i64 %13, i1 false)
  %14 = getelementptr inbounds nuw i8, ptr %0, i64 328
  %15 = load ptr, ptr %14, align 8, !tbaa !23
  %16 = getelementptr inbounds nuw i8, ptr %1, i64 8
  %17 = load ptr, ptr %16, align 8, !tbaa !29
  %18 = load i32, ptr %5, align 8, !tbaa !28
  %19 = zext i32 %18 to i64
  %20 = shl nuw nsw i64 %19, 1
  tail call void @llvm.memcpy.p0.p0.i64(ptr align 2 %15, ptr align 2 %17, i64 %20, i1 false)
  %21 = getelementptr inbounds nuw i8, ptr %0, i64 336
  %22 = load ptr, ptr %21, align 8, !tbaa !24
  %23 = getelementptr inbounds nuw i8, ptr %1, i64 16
  %24 = load ptr, ptr %23, align 8, !tbaa !30
  %25 = load i32, ptr %5, align 8, !tbaa !28
  %26 = zext i32 %25 to i64
  %27 = shl nuw nsw i64 %26, 1
  tail call void @llvm.memcpy.p0.p0.i64(ptr align 2 %22, ptr align 2 %24, i64 %27, i1 false)
  br label %28

28:                                               ; preds = %8, %7
  ret void
}